target datalayout = "e-m:e-p270:32:32-p271:32:32-p272:64:64-i64:64-i128:128-f80:128-n8:16:32:64-S128"
target triple = "x86_64-pc-linux-gnu"

%struct.AVFormatContext = type { ptr, ptr, ptr, ptr, ptr, i32, i32, ptr, i32, ptr, i32, ptr, ptr, i64, i64, i64, i32, i32, i32, i64, i64, ptr, i32, i32, ptr, i32, i32, i32, i32, ptr, i64, i32, i32, %struct.AVIOInterruptCB, i32, i32, i32, i32, i64, i32, i32, i32, i32, i32, i32, i32, i32, i32, i32, i32, i32, i64, i32, i32, i32, i32, i32, ptr, ptr, ptr, ptr, i32, ptr, ptr, ptr, ptr, i32, ptr, ptr, i64, ptr, ptr, ptr, i64 }
%struct.AVIOInterruptCB = type { ptr, ptr }
%struct.HLSContext = type { ptr, i64, i32, i64, i64, i32, i32, i32, i32, ptr, ptr, i32, i32, i32, i32, i32, i64, i64, ptr, ptr, ptr, ptr, i32, ptr, ptr, ptr, ptr, i32, ptr, [4097 x i8], [4097 x i8], [33 x i8], [33 x i8], ptr, ptr, ptr, ptr, i32, ptr, i32, i32, ptr, i32, ptr, ptr, ptr, i32, i32, ptr, ptr, ptr, i64, i32, ptr, i32, i32 }
%struct.VariantStream = type { i32, i32, i64, ptr, ptr, ptr, ptr, i32, i32, ptr, ptr, ptr, ptr, i32, i32, i32, i32, double, i64, i64, i64, i64, i64, double, i64, i64, i32, i32, i32, i32, i64, double, i64, i64, ptr, ptr, ptr, ptr, ptr, ptr, ptr, ptr, double, [4096 x i8], ptr, ptr, i32, [4097 x i8], [4097 x i8], [33 x i8], [33 x i8], ptr, [128 x i8], i32, i32, i32, i32, ptr, ptr, ptr, ptr, ptr, ptr }

; Function Attrs: nounwind uwtable
define internal void @sls_flag_file_rename(ptr noundef %0, ptr noundef %1, ptr noundef %2) #0 {
  %4 = alloca ptr, align 8
  %5 = alloca ptr, align 8
  %6 = alloca ptr, align 8
  store ptr %0, ptr %4, align 8, !tbaa !26
  store ptr %1, ptr %5, align 8, !tbaa !28
  store ptr %2, ptr %6, align 8, !tbaa !73
  %7 = load ptr, ptr %4, align 8, !tbaa !26
  %8 = getelementptr inbounds nuw %struct.HLSContext, ptr %7, i32 0, i32 7
  %9 = load i32, ptr %8, align 8, !tbaa !87
  %10 = and i32 %9, 1536
  %11 = icmp ne i32 %10, 0
  br i1 %11, label %12, label %27

12:                                               ; preds = %3
  %13 = load ptr, ptr %5, align 8, !tbaa !28
  %14 = getelementptr inbounds nuw %struct.VariantStream, ptr %13, i32 0, i32 43
  %15 = getelementptr inbounds [4096 x i8], ptr %14, i64 0, i64 0
  %16 = call i64 @strlen(ptr noundef %15) #16
  %17 = icmp ne i64 %16, 0
  br i1 %17, label %18, label %27

18:                                               ; preds = %12
  %19 = load ptr, ptr %6, align 8, !tbaa !73
  %20 = load ptr, ptr %5, align 8, !tbaa !28
  %21 = getelementptr inbounds nuw %struct.VariantStream, ptr %20, i32 0, i32 11
  %22 = load ptr, ptr %21, align 8, !tbaa !35
  %23 = getelementptr inbounds nuw %struct.AVFormatContext, ptr %22, i32 0, i32 12
  %24 = load ptr, ptr %23, align 8, !tbaa !106
  %25 = load ptr, ptr %4, align 8, !tbaa !26
  %26 = call i32 @ff_rename(ptr noundef %19, ptr noundef %24, ptr noundef %25)
  br label %27

27:                                               ; preds = %18, %12, %3
  ret void
}