; Function Attrs: nounwind uwtable
define internal fastcc void @sls_flag_file_rename(ptr noundef %0, ptr noundef readonly captures(none) %1, ptr noundef %2) unnamed_addr #0 {
  %4 = getelementptr inbounds nuw i8, ptr %0, i64 48
  %5 = load i32, ptr %4, align 8, !tbaa !81
  %6 = and i32 %5, 1536
  %.not = icmp eq i32 %6, 0
  br i1 %.not, label %15, label %7

7:                                                ; preds = %3
  %8 = getelementptr inbounds nuw i8, ptr %1, i64 296
  %char0 = load i8, ptr %8, align 1
  %.not5 = icmp eq i8 %char0, 0
  br i1 %.not5, label %15, label %9

9:                                                ; preds = %7
  %10 = getelementptr inbounds nuw i8, ptr %1, i64 72
  %11 = load ptr, ptr %10, align 8, !tbaa !29
  %12 = getelementptr inbounds nuw i8, ptr %11, i64 88
  %13 = load ptr, ptr %12, align 8, !tbaa !98
  %14 = tail call i32 @ff_rename(ptr noundef %2, ptr noundef %13, ptr noundef nonnull %0) #17
  br label %15

15:                                               ; preds = %9, %7, %3
  ret void
}